target datalayout = "e-m:e-p270:32:32-p271:32:32-p272:64:64-i64:64-i128:128-f80:128-n8:16:32:64-S128"
target triple = "x86_64-pc-linux-gnu"

%struct.UTrieHeader = type { i32, i32, i32, i32 }
%struct.UTrie = type { ptr, ptr, ptr, i32, i32, i32, i8 }

; Function Attrs: inlinehint mustprogress nounwind uwtable
define internal noundef signext i8 @_ZL9U_FAILURE10UErrorCode(i32 noundef %0) #7 {
  %2 = alloca i32, align 4
  store i32 %0, ptr %2, align 4, !tbaa !32
  %3 = load i32, ptr %2, align 4, !tbaa !32
  %4 = icmp sgt i32 %3, 0
  %5 = zext i1 %4 to i8
  ret i8 %5
}

; Function Attrs: mustprogress uwtable
define i32 @utrie_unserialize_77(ptr noundef %0, ptr noundef %1, i32 noundef %2, ptr noundef %3) #0 {
  %5 = alloca i32, align 4
  %6 = alloca ptr, align 8
  %7 = alloca ptr, align 8
  %8 = alloca i32, align 4
  %9 = alloca ptr, align 8
  %10 = alloca ptr, align 8
  %11 = alloca ptr, align 8
  %12 = alloca i32, align 4
  %13 = alloca i32, align 4
  store ptr %0, ptr %6, align 8, !tbaa !56
  store ptr %1, ptr %7, align 8, !tbaa !31
  store i32 %2, ptr %8, align 4, !tbaa !10
  store ptr %3, ptr %9, align 8, !tbaa !31
  call void @llvm.lifetime.start.p0(i64 8, ptr %10) #8
  call void @llvm.lifetime.start.p0(i64 8, ptr %11) #8
  call void @llvm.lifetime.start.p0(i64 4, ptr %12) #8
  %14 = load ptr, ptr %9, align 8, !tbaa !31
  %15 = icmp eq ptr %14, null
  br i1 %15, label %21, label %16

16:                                               ; preds = %4
  %17 = load ptr, ptr %9, align 8, !tbaa !31
  %18 = load i32, ptr %17, align 4, !tbaa !32
  %19 = call noundef signext i8 @_ZL9U_FAILURE10UErrorCode(i32 noundef %18)
  %20 = icmp ne i8 %19, 0
  br i1 %20, label %21, label %22

21:                                               ; preds = %16, %4
  store i32 -1, ptr %5, align 4
  store i32 1, ptr %13, align 4
  br label %165

22:                                               ; preds = %16
  %23 = load i32, ptr %8, align 4, !tbaa !10
  %24 = icmp slt i32 %23, 16
  br i1 %24, label %25, label %27

25:                                               ; preds = %22
  %26 = load ptr, ptr %9, align 8, !tbaa !31
  store i32 3, ptr %26, align 4, !tbaa !32
  store i32 -1, ptr %5, align 4
  store i32 1, ptr %13, align 4
  br label %165

27:                                               ; preds = %22
  %28 = load ptr, ptr %7, align 8, !tbaa !31
  store ptr %28, ptr %10, align 8, !tbaa !34
  %29 = load ptr, ptr %10, align 8, !tbaa !34
  %30 = getelementptr inbounds nuw %struct.UTrieHeader, ptr %29, i32 0, i32 0
  %31 = load i32, ptr %30, align 4, !tbaa !36
  %32 = icmp ne i32 %31, 1416784229
  br i1 %32, label %33, label %35

33:                                               ; preds = %27
  %34 = load ptr, ptr %9, align 8, !tbaa !31
  store i32 3, ptr %34, align 4, !tbaa !32
  store i32 -1, ptr %5, align 4
  store i32 1, ptr %13, align 4
  br label %165

35:                                               ; preds = %27
  %36 = load ptr, ptr %10, align 8, !tbaa !34
  %37 = getelementptr inbounds nuw %struct.UTrieHeader, ptr %36, i32 0, i32 1
  %38 = load i32, ptr %37, align 4, !tbaa !38
  store i32 %38, ptr %12, align 4, !tbaa !10
  %39 = load i32, ptr %12, align 4, !tbaa !10
  %40 = and i32 %39, 15
  %41 = icmp ne i32 %40, 5
  br i1 %41, label %47, label %42

42:                                               ; preds = %35
  %43 = load i32, ptr %12, align 4, !tbaa !10
  %44 = lshr i32 %43, 4
  %45 = and i32 %44, 15
  %46 = icmp ne i32 %45, 2
  br i1 %46, label %47, label %49

47:                                               ; preds = %42, %35
  %48 = load ptr, ptr %9, align 8, !tbaa !31
  store i32 3, ptr %48, align 4, !tbaa !32
  store i32 -1, ptr %5, align 4
  store i32 1, ptr %13, align 4
  br label %165

49:                                               ; preds = %42
  %50 = load i32, ptr %12, align 4, !tbaa !10
  %51 = and i32 %50, 512
  %52 = icmp ne i32 %51, 0
  %53 = zext i1 %52 to i8
  %54 = load ptr, ptr %6, align 8, !tbaa !56
  %55 = getelementptr inbounds nuw %struct.UTrie, ptr %54, i32 0, i32 6
  store i8 %53, ptr %55, align 4, !tbaa !58
  %56 = load ptr, ptr %10, align 8, !tbaa !34
  %57 = getelementptr inbounds nuw %struct.UTrieHeader, ptr %56, i32 0, i32 2
  %58 = load i32, ptr %57, align 4, !tbaa !39
  %59 = load ptr, ptr %6, align 8, !tbaa !56
  %60 = getelementptr inbounds nuw %struct.UTrie, ptr %59, i32 0, i32 3
  store i32 %58, ptr %60, align 8, !tbaa !60
  %61 = load ptr, ptr %10, align 8, !tbaa !34
  %62 = getelementptr inbounds nuw %struct.UTrieHeader, ptr %61, i32 0, i32 3
  %63 = load i32, ptr %62, align 4, !tbaa !40
  %64 = load ptr, ptr %6, align 8, !tbaa !56
  %65 = getelementptr inbounds nuw %struct.UTrie, ptr %64, i32 0, i32 4
  store i32 %63, ptr %65, align 4, !tbaa !61
  %66 = load i32, ptr %8, align 4, !tbaa !10
  %67 = sub nsw i32 %66, 16
  store i32 %67, ptr %8, align 4, !tbaa !10
  %68 = load i32, ptr %8, align 4, !tbaa !10
  %69 = load ptr, ptr %6, align 8, !tbaa !56
  %70 = getelementptr inbounds nuw %struct.UTrie, ptr %69, i32 0, i32 3
  %71 = load i32, ptr %70, align 8, !tbaa !60
  %72 = mul nsw i32 2, %71
  %73 = icmp slt i32 %68, %72
  br i1 %73, label %74, label %76

74:                                               ; preds = %49
  %75 = load ptr, ptr %9, align 8, !tbaa !31
  store i32 3, ptr %75, align 4, !tbaa !32
  store i32 -1, ptr %5, align 4
  store i32 1, ptr %13, align 4
  br label %165

76:                                               ; preds = %49
  %77 = load ptr, ptr %10, align 8, !tbaa !34
  %78 = getelementptr inbounds %struct.UTrieHeader, ptr %77, i64 1
  store ptr %78, ptr %11, align 8, !tbaa !41
  %79 = load ptr, ptr %11, align 8, !tbaa !41
  %80 = load ptr, ptr %6, align 8, !tbaa !56
  %81 = getelementptr inbounds nuw %struct.UTrie, ptr %80, i32 0, i32 0
  store ptr %79, ptr %81, align 8, !tbaa !62
  %82 = load ptr, ptr %6, align 8, !tbaa !56
  %83 = getelementptr inbounds nuw %struct.UTrie, ptr %82, i32 0, i32 3
  %84 = load i32, ptr %83, align 8, !tbaa !60
  %85 = load ptr, ptr %11, align 8, !tbaa !41
  %86 = sext i32 %84 to i64
  %87 = getelementptr inbounds i16, ptr %85, i64 %86
  store ptr %87, ptr %11, align 8, !tbaa !41
  %88 = load ptr, ptr %6, align 8, !tbaa !56
  %89 = getelementptr inbounds nuw %struct.UTrie, ptr %88, i32 0, i32 3
  %90 = load i32, ptr %89, align 8, !tbaa !60
  %91 = mul nsw i32 2, %90
  %92 = load i32, ptr %8, align 4, !tbaa !10
  %93 = sub nsw i32 %92, %91
  store i32 %93, ptr %8, align 4, !tbaa !10
  %94 = load i32, ptr %12, align 4, !tbaa !10
  %95 = and i32 %94, 256
  %96 = icmp ne i32 %95, 0
  br i1 %96, label %97, label %127

97:                                               ; preds = %76
  %98 = load i32, ptr %8, align 4, !tbaa !10
  %99 = load ptr, ptr %6, align 8, !tbaa !56
  %100 = getelementptr inbounds nuw %struct.UTrie, ptr %99, i32 0, i32 4
  %101 = load i32, ptr %100, align 4, !tbaa !61
  %102 = mul nsw i32 4, %101
  %103 = icmp slt i32 %98, %102
  br i1 %103, label %104, label %106

104:                                              ; preds = %97
  %105 = load ptr, ptr %9, align 8, !tbaa !31
  store i32 3, ptr %105, align 4, !tbaa !32
  store i32 -1, ptr %5, align 4
  store i32 1, ptr %13, align 4
  br label %165

106:                                              ; preds = %97
  %107 = load ptr, ptr %11, align 8, !tbaa !41
  %108 = load ptr, ptr %6, align 8, !tbaa !56
  %109 = getelementptr inbounds nuw %struct.UTrie, ptr %108, i32 0, i32 1
  store ptr %107, ptr %109, align 8, !tbaa !63
  %110 = load ptr, ptr %6, align 8, !tbaa !56
  %111 = getelementptr inbounds nuw %struct.UTrie, ptr %110, i32 0, i32 1
  %112 = load ptr, ptr %111, align 8, !tbaa !63
  %113 = getelementptr inbounds i32, ptr %112, i64 0
  %114 = load i32, ptr %113, align 4, !tbaa !10
  %115 = load ptr, ptr %6, align 8, !tbaa !56
  %116 = getelementptr inbounds nuw %struct.UTrie, ptr %115, i32 0, i32 5
  store i32 %114, ptr %116, align 8, !tbaa !64
  %117 = load ptr, ptr %6, align 8, !tbaa !56
  %118 = getelementptr inbounds nuw %struct.UTrie, ptr %117, i32 0, i32 3
  %119 = load i32, ptr %118, align 8, !tbaa !60
  %120 = mul nsw i32 2, %119
  %121 = add nsw i32 16, %120
  %122 = load ptr, ptr %6, align 8, !tbaa !56
  %123 = getelementptr inbounds nuw %struct.UTrie, ptr %122, i32 0, i32 4
  %124 = load i32, ptr %123, align 4, !tbaa !61
  %125 = mul nsw i32 4, %124
  %126 = add nsw i32 %121, %125
  store i32 %126, ptr %8, align 4, !tbaa !10
  br label %161

127:                                              ; preds = %76
  %128 = load i32, ptr %8, align 4, !tbaa !10
  %129 = load ptr, ptr %6, align 8, !tbaa !56
  %130 = getelementptr inbounds nuw %struct.UTrie, ptr %129, i32 0, i32 4
  %131 = load i32, ptr %130, align 4, !tbaa !61
  %132 = mul nsw i32 2, %131
  %133 = icmp slt i32 %128, %132
  br i1 %133, label %134, label %136

134:                                              ; preds = %127
  %135 = load ptr, ptr %9, align 8, !tbaa !31
  store i32 3, ptr %135, align 4, !tbaa !32
  store i32 -1, ptr %5, align 4
  store i32 1, ptr %13, align 4
  br label %165

136:                                              ; preds = %127
  %137 = load ptr, ptr %6, align 8, !tbaa !56
  %138 = getelementptr inbounds nuw %struct.UTrie, ptr %137, i32 0, i32 1
  store ptr null, ptr %138, align 8, !tbaa !63
  %139 = load ptr, ptr %6, align 8, !tbaa !56
  %140 = getelementptr inbounds nuw %struct.UTrie, ptr %139, i32 0, i32 0
  %141 = load ptr, ptr %140, align 8, !tbaa !62
  %142 = load ptr, ptr %6, align 8, !tbaa !56
  %143 = getelementptr inbounds nuw %struct.UTrie, ptr %142, i32 0, i32 3
  %144 = load i32, ptr %143, align 8, !tbaa !60
  %145 = sext i32 %144 to i64
  %146 = getelementptr inbounds i16, ptr %141, i64 %145
  %147 = load i16, ptr %146, align 2, !tbaa !43
  %148 = zext i16 %147 to i32
  %149 = load ptr, ptr %6, align 8, !tbaa !56
  %150 = getelementptr inbounds nuw %struct.UTrie, ptr %149, i32 0, i32 5
  store i32 %148, ptr %150, align 8, !tbaa !64
  %151 = load ptr, ptr %6, align 8, !tbaa !56
  %152 = getelementptr inbounds nuw %struct.UTrie, ptr %151, i32 0, i32 3
  %153 = load i32, ptr %152, align 8, !tbaa !60
  %154 = mul nsw i32 2, %153
  %155 = add nsw i32 16, %154
  %156 = load ptr, ptr %6, align 8, !tbaa !56
  %157 = getelementptr inbounds nuw %struct.UTrie, ptr %156, i32 0, i32 4
  %158 = load i32, ptr %157, align 4, !tbaa !61
  %159 = mul nsw i32 2, %158
  %160 = add nsw i32 %155, %159
  store i32 %160, ptr %8, align 4, !tbaa !10
  br label %161

161:                                              ; preds = %136, %106
  %162 = load ptr, ptr %6, align 8, !tbaa !56
  %163 = getelementptr inbounds nuw %struct.UTrie, ptr %162, i32 0, i32 2
  store ptr @utrie_defaultGetFoldingOffset_77, ptr %163, align 8, !tbaa !65
  %164 = load i32, ptr %8, align 4, !tbaa !10
  store i32 %164, ptr %5, align 4
  store i32 1, ptr %13, align 4
  br label %165

165:                                              ; preds = %161, %134, %104, %74, %47, %33, %25, %21
  call void @llvm.lifetime.end.p0(i64 4, ptr %12) #8
  call void @llvm.lifetime.end.p0(i64 8, ptr %11) #8
  call void @llvm.lifetime.end.p0(i64 8, ptr %10) #8
  %166 = load i32, ptr %5, align 4
  ret i32 %166
}