; Function Attrs: mustprogress nofree norecurse nosync nounwind willreturn memory(argmem: readwrite) uwtable
define i32 @utrie_unserialize_77(ptr noundef writeonly captures(none) %0, ptr noundef %1, i32 noundef %2, ptr noundef %3) local_unnamed_addr #6 {
  %5 = icmp eq ptr %3, null
  br i1 %5, label %65, label %6

6:                                                ; preds = %4
  %7 = load i32, ptr %3, align 4, !tbaa !26
  %8 = icmp slt i32 %7, 1
  br i1 %8, label %9, label %65

9:                                                ; preds = %6
  %10 = icmp slt i32 %2, 16
  br i1 %10, label %11, label %12

11:                                               ; preds = %9
  store i32 3, ptr %3, align 4, !tbaa !26
  br label %65

12:                                               ; preds = %9
  %13 = load i32, ptr %1, align 4, !tbaa !32
  %.not53 = icmp eq i32 %13, 1416784229
  br i1 %.not53, label %15, label %14

14:                                               ; preds = %12
  store i32 3, ptr %3, align 4, !tbaa !26
  br label %65

15:                                               ; preds = %12
  %16 = getelementptr inbounds nuw i8, ptr %1, i64 4
  %17 = load i32, ptr %16, align 4, !tbaa !34
  %18 = and i32 %17, 255
  %or.cond = icmp eq i32 %18, 37
  br i1 %or.cond, label %20, label %19

19:                                               ; preds = %15
  store i32 3, ptr %3, align 4, !tbaa !26
  br label %65

20:                                               ; preds = %15
  %21 = lshr i32 %17, 9
  %22 = trunc i32 %21 to i8
  %23 = and i8 %22, 1
  %24 = getelementptr inbounds nuw i8, ptr %0, i64 36
  store i8 %23, ptr %24, align 4, !tbaa !51
  %25 = getelementptr inbounds nuw i8, ptr %1, i64 8
  %26 = load i32, ptr %25, align 4, !tbaa !35
  %27 = getelementptr inbounds nuw i8, ptr %0, i64 24
  store i32 %26, ptr %27, align 8, !tbaa !54
  %28 = getelementptr inbounds nuw i8, ptr %1, i64 12
  %29 = load i32, ptr %28, align 4, !tbaa !36
  %30 = getelementptr inbounds nuw i8, ptr %0, i64 28
  store i32 %29, ptr %30, align 4, !tbaa !55
  %31 = add nsw i32 %2, -16
  %32 = shl nsw i32 %26, 1
  %33 = icmp slt i32 %31, %32
  br i1 %33, label %34, label %35

34:                                               ; preds = %20
  store i32 3, ptr %3, align 4, !tbaa !26
  br label %65

35:                                               ; preds = %20
  %36 = getelementptr inbounds nuw i8, ptr %1, i64 16
  store ptr %36, ptr %0, align 8, !tbaa !56
  %37 = sext i32 %26 to i64
  %38 = getelementptr inbounds i16, ptr %36, i64 %37
  %39 = sub nsw i32 %31, %32
  %40 = and i32 %17, 256
  %.not56 = icmp eq i32 %40, 0
  br i1 %.not56, label %51, label %41

41:                                               ; preds = %35
  %42 = shl nsw i32 %29, 2
  %43 = icmp slt i32 %39, %42
  br i1 %43, label %44, label %45

44:                                               ; preds = %41
  store i32 3, ptr %3, align 4, !tbaa !26
  br label %65

45:                                               ; preds = %41
  %46 = getelementptr inbounds nuw i8, ptr %0, i64 8
  store ptr %38, ptr %46, align 8, !tbaa !57
  %47 = load i32, ptr %38, align 4, !tbaa !12
  %48 = getelementptr inbounds nuw i8, ptr %0, i64 32
  store i32 %47, ptr %48, align 8, !tbaa !58
  %49 = add nsw i32 %32, 16
  %50 = add nsw i32 %49, %42
  br label %63

51:                                               ; preds = %35
  %52 = shl nsw i32 %29, 1
  %53 = icmp slt i32 %39, %52
  br i1 %53, label %54, label %55

54:                                               ; preds = %51
  store i32 3, ptr %3, align 4, !tbaa !26
  br label %65

55:                                               ; preds = %51
  %56 = getelementptr inbounds nuw i8, ptr %0, i64 8
  store ptr null, ptr %56, align 8, !tbaa !57
  %57 = load i16, ptr %38, align 2, !tbaa !37
  %58 = zext i16 %57 to i32
  %59 = getelementptr inbounds nuw i8, ptr %0, i64 32
  store i32 %58, ptr %59, align 8, !tbaa !58
  %60 = add i32 %29, %26
  %61 = shl i32 %60, 1
  %62 = add i32 %61, 16
  br label %63

63:                                               ; preds = %55, %45
  %.049 = phi i32 [ %50, %45 ], [ %62, %55 ]
  %64 = getelementptr inbounds nuw i8, ptr %0, i64 16
  store ptr @utrie_defaultGetFoldingOffset_77, ptr %64, align 8, !tbaa !59
  br label %65

65:                                               ; preds = %4, %6, %63, %54, %44, %34, %19, %14, %11
  %.0 = phi i32 [ -1, %11 ], [ -1, %14 ], [ -1, %19 ], [ -1, %34 ], [ -1, %44 ], [ %.049, %63 ], [ -1, %54 ], [ -1, %6 ], [ -1, %4 ]
  ret i32 %.0
}